target datalayout = "e-m:e-p270:32:32-p271:32:32-p272:64:64-i64:64-i128:128-f80:128-n8:16:32:64-S128"
target triple = "x86_64-pc-linux-gnu"

%"class.absl::lts_20240722::log_internal::Voidify" = type { i8 }
%"class.absl::lts_20240722::log_internal::LogMessage" = type { %"class.absl::lts_20240722::base_internal::ErrnoSaver", %"class.std::unique_ptr" }
%"class.absl::lts_20240722::base_internal::ErrnoSaver" = type { i32 }
%"class.std::unique_ptr" = type { %"struct.std::__uniq_ptr_data" }
%"struct.std::__uniq_ptr_data" = type { %"class.std::__uniq_ptr_impl" }
%"class.std::__uniq_ptr_impl" = type { %"class.std::tuple" }
%"class.std::tuple" = type { %"struct.std::_Tuple_impl" }
%"struct.std::_Tuple_impl" = type { %"struct.std::_Head_base.1" }
%"struct.std::_Head_base.1" = type { ptr }
%struct.grpc_slice = type { ptr, %"union.grpc_slice::grpc_slice_data" }
%"union.grpc_slice::grpc_slice_data" = type { %"struct.grpc_slice::grpc_slice_data::grpc_slice_refcounted", [8 x i8] }
%"struct.grpc_slice::grpc_slice_data::grpc_slice_refcounted" = type { i64, ptr }
%struct.alts_tsi_handshaker_result = type { %struct.tsi_handshaker_result, ptr, ptr, ptr, i64, %struct.grpc_slice, i8, %struct.grpc_slice, i64 }
%struct.tsi_handshaker_result = type { ptr }
%"class.std::basic_string_view" = type { i64, ptr }
%"class.absl::lts_20240722::log_internal::LogMessageFatal" = type { %"class.absl::lts_20240722::log_internal::LogMessage" }
%"struct.grpc_slice::grpc_slice_data::grpc_slice_inlined" = type { i8, [23 x i8] }
%"class.std::__cxx11::basic_string" = type { %"struct.std::__cxx11::basic_string<char>::_Alloc_hider", i64, %union.anon }
%"struct.std::__cxx11::basic_string<char>::_Alloc_hider" = type { ptr }
%union.anon = type { i64, [8 x i8] }

@.str = private unnamed_addr constant [139 x i8] c"generated/home/dtcxzyw/WorkSpace/Projects/compilers/llvm-opt-benchmark/bench/grpc/grpc/src/core/tsi/alts/handshaker/alts_tsi_handshaker.cc\00", align 1
@.str.14 = private unnamed_addr constant [22 x i8] c"recv_bytes != nullptr\00", align 1
@.str.15 = private unnamed_addr constant [18 x i8] c"result != nullptr\00", align 1

; Function Attrs: mustprogress nounwind uwtable
define available_externally noundef ptr @_ZNKSt7__cxx1112basic_stringIcSt11char_traitsIcESaIcEE7_M_dataEv(ptr noundef nonnull align 8 dereferenceable(32) %0) #6 align 2 {
  %2 = alloca ptr, align 8
  store ptr %0, ptr %2, align 8, !tbaa !71
  %3 = load ptr, ptr %2, align 8
  %4 = getelementptr inbounds nuw %"class.std::__cxx11::basic_string", ptr %3, i32 0, i32 0
  %5 = getelementptr inbounds nuw %"struct.std::__cxx11::basic_string<char>::_Alloc_hider", ptr %4, i32 0, i32 0
  %6 = load ptr, ptr %5, align 8, !tbaa !226
  ret ptr %6
}

; Function Attrs: mustprogress nounwind uwtable
define linkonce_odr void @_ZNSt17basic_string_viewIcSt11char_traitsIcEEC2EPKcm(ptr noundef nonnull align 8 dereferenceable(16) %0, ptr noundef %1, i64 noundef %2) unnamed_addr #6 comdat align 2 {
  %4 = alloca ptr, align 8
  %5 = alloca ptr, align 8
  %6 = alloca i64, align 8
  store ptr %0, ptr %4, align 8, !tbaa !118
  store ptr %1, ptr %5, align 8, !tbaa !39
  store i64 %2, ptr %6, align 8, !tbaa !40
  %7 = load ptr, ptr %4, align 8
  %8 = getelementptr inbounds nuw %"class.std::basic_string_view", ptr %7, i32 0, i32 0
  %9 = load i64, ptr %6, align 8, !tbaa !40
  store i64 %9, ptr %8, align 8, !tbaa !120
  %10 = getelementptr inbounds nuw %"class.std::basic_string_view", ptr %7, i32 0, i32 1
  %11 = load ptr, ptr %5, align 8, !tbaa !39
  store ptr %11, ptr %10, align 8, !tbaa !122
  ret void
}

; Function Attrs: mustprogress nounwind uwtable
define available_externally noundef i64 @_ZNKSt7__cxx1112basic_stringIcSt11char_traitsIcESaIcEE4sizeEv(ptr noundef nonnull align 8 dereferenceable(32) %0) #6 align 2 {
  %2 = alloca ptr, align 8
  store ptr %0, ptr %2, align 8, !tbaa !71
  %3 = load ptr, ptr %2, align 8
  %4 = getelementptr inbounds nuw %"class.std::__cxx11::basic_string", ptr %3, i32 0, i32 1
  %5 = load i64, ptr %4, align 8, !tbaa !223
  ret i64 %5
}

; Function Attrs: mustprogress nounwind uwtable
define available_externally noundef ptr @_ZNKSt7__cxx1112basic_stringIcSt11char_traitsIcESaIcEE4dataEv(ptr noundef nonnull align 8 dereferenceable(32) %0) #6 align 2 {
  %2 = alloca ptr, align 8
  store ptr %0, ptr %2, align 8, !tbaa !71
  %3 = load ptr, ptr %2, align 8
  %4 = call noundef ptr @_ZNKSt7__cxx1112basic_stringIcSt11char_traitsIcESaIcEE7_M_dataEv(ptr noundef nonnull align 8 dereferenceable(32) %3)
  ret ptr %4
}

; Function Attrs: mustprogress nounwind uwtable
define linkonce_odr noundef i64 @_ZNSt11char_traitsIcE6lengthEPKc(ptr noundef %0) #6 comdat align 2 {
  %2 = alloca ptr, align 8
  store ptr %0, ptr %2, align 8, !tbaa !39
  %3 = load ptr, ptr %2, align 8, !tbaa !39
  %4 = call i64 @strlen(ptr noundef %3) #3
  ret i64 %4
}

; Function Attrs: mustprogress nounwind uwtable
define available_externally { i64, ptr } @_ZNKSt7__cxx1112basic_stringIcSt11char_traitsIcESaIcEEcvSt17basic_string_viewIcS2_EEv(ptr noundef nonnull align 8 dereferenceable(32) %0) #6 align 2 {
  %2 = alloca %"class.std::basic_string_view", align 8
  %3 = alloca ptr, align 8
  store ptr %0, ptr %3, align 8, !tbaa !71
  %4 = load ptr, ptr %3, align 8
  %5 = call noundef ptr @_ZNKSt7__cxx1112basic_stringIcSt11char_traitsIcESaIcEE4dataEv(ptr noundef nonnull align 8 dereferenceable(32) %4) #3
  %6 = call noundef i64 @_ZNKSt7__cxx1112basic_stringIcSt11char_traitsIcESaIcEE4sizeEv(ptr noundef nonnull align 8 dereferenceable(32) %4) #3
  call void @_ZNSt17basic_string_viewIcSt11char_traitsIcEEC2EPKcm(ptr noundef nonnull align 8 dereferenceable(16) %2, ptr noundef %5, i64 noundef %6) #3
  %7 = load { i64, ptr }, ptr %2, align 8
  ret { i64, ptr } %7
}

; Function Attrs: inlinehint mustprogress uwtable
define linkonce_odr noundef ptr @_ZN4absl12lts_2024072212log_internal12Check_NEImplIP21tsi_handshaker_resultDnEEPNSt7__cxx1112basic_stringIcSt11char_traitsIcESaIcEEERKT_RKT0_PKc(ptr noundef nonnull align 8 dereferenceable(8) %0, ptr noundef nonnull align 8 dereferenceable(8) %1, ptr noundef %2) #9 comdat {
  %4 = alloca ptr, align 8
  %5 = alloca ptr, align 8
  %6 = alloca ptr, align 8
  store ptr %0, ptr %4, align 8, !tbaa !10
  store ptr %1, ptr %5, align 8, !tbaa !87
  store ptr %2, ptr %6, align 8, !tbaa !39
  %7 = load ptr, ptr %4, align 8, !tbaa !10
  %8 = load ptr, ptr %7, align 8, !tbaa !50
  %9 = icmp ne ptr %8, null
  %10 = zext i1 %9 to i64
  %11 = call i64 @llvm.expect.i64(i64 %10, i64 1)
  %12 = icmp ne i64 %11, 0
  br i1 %12, label %13, label %14

13:                                               ; preds = %3
  br label %19

14:                                               ; preds = %3
  %15 = load ptr, ptr %4, align 8, !tbaa !10
  %16 = load ptr, ptr %15, align 8, !tbaa !50
  %17 = load ptr, ptr %6, align 8, !tbaa !39
  %18 = call noundef nonnull ptr @_ZN4absl12lts_2024072212log_internal17MakeCheckOpStringIPKvS4_EEPNSt7__cxx1112basic_stringIcSt11char_traitsIcESaIcEEET_T0_PKc(ptr noundef %16, ptr noundef null, ptr noundef %17)
  br label %19

19:                                               ; preds = %14, %13
  %20 = phi ptr [ null, %13 ], [ %18, %14 ]
  ret ptr %20
}

; Function Attrs: inlinehint mustprogress nounwind uwtable
define linkonce_odr noundef nonnull align 8 dereferenceable(8) ptr @_ZN4absl12lts_2024072212log_internal21GetReferenceableValueIDnEERKT_S5_(ptr noundef nonnull align 8 dereferenceable(8) %0) #11 comdat {
  %2 = alloca ptr, align 8
  store ptr %0, ptr %2, align 8, !tbaa !87
  %3 = load ptr, ptr %2, align 8, !tbaa !87
  ret ptr %3
}

; Function Attrs: inlinehint mustprogress nounwind uwtable
define linkonce_odr noundef nonnull align 8 dereferenceable(8) ptr @_ZN4absl12lts_2024072212log_internal21GetReferenceableValueIP21tsi_handshaker_resultEERKT_S7_(ptr noundef nonnull align 8 dereferenceable(8) %0) #11 comdat {
  %2 = alloca ptr, align 8
  store ptr %0, ptr %2, align 8, !tbaa !10
  %3 = load ptr, ptr %2, align 8, !tbaa !10
  ret ptr %3
}

; Function Attrs: mustprogress nounwind uwtable
define linkonce_odr void @_ZNKO4absl12lts_2024072212log_internal7VoidifyaaINS1_10LogMessageEEEvRKT_(ptr noundef nonnull align 1 dereferenceable(1) %0, ptr noundef nonnull align 8 dereferenceable(16) %1) #6 comdat align 2 {
  %3 = alloca ptr, align 8
  %4 = alloca ptr, align 8
  store ptr %0, ptr %3, align 8, !tbaa !52
  store ptr %1, ptr %4, align 8, !tbaa !54
  ret void
}

; Function Attrs: mustprogress nounwind uwtable
define linkonce_odr noundef nonnull align 8 dereferenceable(16) ptr @_ZN4absl12lts_2024072212log_internal10LogMessage14InternalStreamEv(ptr noundef nonnull align 8 dereferenceable(16) %0) #6 comdat align 2 {
  %2 = alloca ptr, align 8
  store ptr %0, ptr %2, align 8, !tbaa !54
  %3 = load ptr, ptr %2, align 8
  ret ptr %3
}

; Function Attrs: mustprogress nounwind uwtable
define linkonce_odr void @_ZNSt17basic_string_viewIcSt11char_traitsIcEEC2EPKc(ptr noundef nonnull align 8 dereferenceable(16) %0, ptr noundef nonnull %1) unnamed_addr #6 comdat align 2 {
  %3 = alloca ptr, align 8
  %4 = alloca ptr, align 8
  store ptr %0, ptr %3, align 8, !tbaa !118
  store ptr %1, ptr %4, align 8, !tbaa !39
  %5 = load ptr, ptr %3, align 8
  %6 = getelementptr inbounds nuw %"class.std::basic_string_view", ptr %5, i32 0, i32 0
  %7 = load ptr, ptr %4, align 8, !tbaa !39
  %8 = call noundef i64 @_ZNSt11char_traitsIcE6lengthEPKc(ptr noundef %7)
  store i64 %8, ptr %6, align 8, !tbaa !120
  %9 = getelementptr inbounds nuw %"class.std::basic_string_view", ptr %5, i32 0, i32 1
  %10 = load ptr, ptr %4, align 8, !tbaa !39
  store ptr %10, ptr %9, align 8, !tbaa !122
  ret void
}

; Function Attrs: mustprogress uwtable
define void @_Z43alts_tsi_handshaker_result_set_unused_bytesP21tsi_handshaker_resultP10grpc_slicem(ptr noundef %0, ptr noundef %1, i64 noundef %2) #4 personality ptr @__gxx_personality_v0 {
  %4 = alloca ptr, align 8
  %5 = alloca ptr, align 8
  %6 = alloca i64, align 8
  %7 = alloca %"class.absl::lts_20240722::log_internal::Voidify", align 1
  %8 = alloca %"class.absl::lts_20240722::log_internal::LogMessageFatal", align 8
  %9 = alloca i1, align 1
  %10 = alloca %"class.std::basic_string_view", align 8
  %11 = alloca i1, align 1
  %12 = alloca ptr, align 8
  %13 = alloca i32, align 4
  %14 = alloca ptr, align 8
  %15 = alloca ptr, align 8
  %16 = alloca %"class.absl::lts_20240722::log_internal::Voidify", align 1
  %17 = alloca %"class.absl::lts_20240722::log_internal::LogMessageFatal", align 8
  %18 = alloca %"class.std::basic_string_view", align 8
  %19 = alloca ptr, align 8
  store ptr %0, ptr %4, align 8, !tbaa !50
  store ptr %1, ptr %5, align 8, !tbaa !113
  store i64 %2, ptr %6, align 8, !tbaa !40
  %20 = load ptr, ptr %5, align 8, !tbaa !113
  %21 = icmp ne ptr %20, null
  %22 = xor i1 %21, true
  %23 = zext i1 %22 to i64
  %24 = call i64 @llvm.expect.i64(i64 %23, i64 0)
  %25 = icmp ne i64 %24, 0
  call void @llvm.lifetime.start.p0(i64 1, ptr %7) #3
  store i1 false, ptr %9, align 1
  store i1 false, ptr %11, align 1
  br i1 %25, label %27, label %26

26:                                               ; preds = %3
  br label %35

27:                                               ; preds = %3
  call void @llvm.lifetime.start.p0(i64 16, ptr %8) #3
  store i1 true, ptr %9, align 1
  call void @_ZNSt17basic_string_viewIcSt11char_traitsIcEEC2EPKc(ptr noundef nonnull align 8 dereferenceable(16) %10, ptr noundef @.str.14) #3
  %28 = getelementptr inbounds nuw { i64, ptr }, ptr %10, i32 0, i32 0
  %29 = load i64, ptr %28, align 8
  %30 = getelementptr inbounds nuw { i64, ptr }, ptr %10, i32 0, i32 1
  %31 = load ptr, ptr %30, align 8
  call void @_ZN4absl12lts_2024072212log_internal15LogMessageFatalC1EPKciSt17basic_string_viewIcSt11char_traitsIcEE(ptr noundef nonnull align 8 dereferenceable(16) %8, ptr noundef @.str, i32 noundef 678, i64 %29, ptr %31) #26
  store i1 true, ptr %11, align 1
  %32 = invoke noundef nonnull align 8 dereferenceable(16) ptr @_ZN4absl12lts_2024072212log_internal10LogMessage14InternalStreamEv(ptr noundef nonnull align 8 dereferenceable(16) %8)
          to label %33 unwind label %38

33:                                               ; preds = %27
  invoke void @_ZNKO4absl12lts_2024072212log_internal7VoidifyaaINS1_10LogMessageEEEvRKT_(ptr noundef nonnull align 1 dereferenceable(1) %7, ptr noundef nonnull align 8 dereferenceable(16) %32)
          to label %34 unwind label %38

34:                                               ; preds = %33
  br label %35

35:                                               ; preds = %34, %26
  %36 = load i1, ptr %11, align 1
  br i1 %36, label %37, label %44

37:                                               ; preds = %35
  call void @_ZN4absl12lts_2024072212log_internal15LogMessageFatalD1Ev(ptr noundef nonnull align 8 dereferenceable(16) %8) #28
  unreachable

38:                                               ; preds = %33, %27
  %39 = landingpad { ptr, i32 }
          cleanup
  %40 = extractvalue { ptr, i32 } %39, 0
  store ptr %40, ptr %12, align 8
  %41 = extractvalue { ptr, i32 } %39, 1
  store i32 %41, ptr %13, align 4
  %42 = load i1, ptr %11, align 1
  br i1 %42, label %55, label %57

43:                                               ; No predecessors!
  br label %44

44:                                               ; preds = %43, %35
  %45 = load i1, ptr %9, align 1
  br i1 %45, label %46, label %47

46:                                               ; preds = %44
  call void @llvm.lifetime.end.p0(i64 16, ptr %8) #3
  br label %47

47:                                               ; preds = %46, %44
  call void @llvm.lifetime.end.p0(i64 1, ptr %7) #3
  br label %48

48:                                               ; preds = %47
  call void @llvm.lifetime.start.p0(i64 8, ptr %14) #3
  %49 = call noundef nonnull align 8 dereferenceable(8) ptr @_ZN4absl12lts_2024072212log_internal21GetReferenceableValueIP21tsi_handshaker_resultEERKT_S7_(ptr noundef nonnull align 8 dereferenceable(8) %4)
  call void @llvm.lifetime.start.p0(i64 8, ptr %15) #3
  store ptr null, ptr %15, align 8, !tbaa !69
  %50 = call noundef nonnull align 8 dereferenceable(8) ptr @_ZN4absl12lts_2024072212log_internal21GetReferenceableValueIDnEERKT_S5_(ptr noundef nonnull align 8 dereferenceable(8) %15)
  %51 = call noundef ptr @_ZN4absl12lts_2024072212log_internal12Check_NEImplIP21tsi_handshaker_resultDnEEPNSt7__cxx1112basic_stringIcSt11char_traitsIcESaIcEEERKT_RKT0_PKc(ptr noundef nonnull align 8 dereferenceable(8) %49, ptr noundef nonnull align 8 dereferenceable(8) %50, ptr noundef @.str.15)
  call void @llvm.lifetime.end.p0(i64 8, ptr %15) #3
  store ptr %51, ptr %14, align 8, !tbaa !71
  %52 = load ptr, ptr %14, align 8, !tbaa !71
  %53 = icmp ne ptr %52, null
  br i1 %53, label %61, label %54

54:                                               ; preds = %48
  call void @llvm.lifetime.end.p0(i64 8, ptr %14) #3
  br label %80

55:                                               ; preds = %38
  call void @_ZN4absl12lts_2024072212log_internal15LogMessageFatalD1Ev(ptr noundef nonnull align 8 dereferenceable(16) %8) #28
  unreachable

56:                                               ; No predecessors!
  br label %57

57:                                               ; preds = %56, %38
  %58 = load i1, ptr %9, align 1
  br i1 %58, label %59, label %60

59:                                               ; preds = %57
  call void @llvm.lifetime.end.p0(i64 16, ptr %8) #3
  br label %60

60:                                               ; preds = %59, %57
  call void @llvm.lifetime.end.p0(i64 1, ptr %7) #3
  br label %155

61:                                               ; preds = %48
  call void @llvm.lifetime.start.p0(i64 1, ptr %16) #3
  call void @llvm.lifetime.start.p0(i64 16, ptr %17) #3
  %62 = load ptr, ptr %14, align 8, !tbaa !71
  %63 = call { i64, ptr } @_ZNKSt7__cxx1112basic_stringIcSt11char_traitsIcESaIcEEcvSt17basic_string_viewIcS2_EEv(ptr noundef nonnull align 8 dereferenceable(32) %62) #3
  %64 = getelementptr inbounds nuw { i64, ptr }, ptr %18, i32 0, i32 0
  %65 = extractvalue { i64, ptr } %63, 0
  store i64 %65, ptr %64, align 8
  %66 = getelementptr inbounds nuw { i64, ptr }, ptr %18, i32 0, i32 1
  %67 = extractvalue { i64, ptr } %63, 1
  store ptr %67, ptr %66, align 8
  %68 = getelementptr inbounds nuw { i64, ptr }, ptr %18, i32 0, i32 0
  %69 = load i64, ptr %68, align 8
  %70 = getelementptr inbounds nuw { i64, ptr }, ptr %18, i32 0, i32 1
  %71 = load ptr, ptr %70, align 8
  call void @_ZN4absl12lts_2024072212log_internal15LogMessageFatalC1EPKciSt17basic_string_viewIcSt11char_traitsIcEE(ptr noundef nonnull align 8 dereferenceable(16) %17, ptr noundef @.str, i32 noundef 679, i64 %69, ptr %71) #26
  %72 = invoke noundef nonnull align 8 dereferenceable(16) ptr @_ZN4absl12lts_2024072212log_internal10LogMessage14InternalStreamEv(ptr noundef nonnull align 8 dereferenceable(16) %17)
          to label %73 unwind label %75

73:                                               ; preds = %61
  invoke void @_ZNKO4absl12lts_2024072212log_internal7VoidifyaaINS1_10LogMessageEEEvRKT_(ptr noundef nonnull align 1 dereferenceable(1) %16, ptr noundef nonnull align 8 dereferenceable(16) %72)
          to label %74 unwind label %75

74:                                               ; preds = %73
  call void @_ZN4absl12lts_2024072212log_internal15LogMessageFatalD1Ev(ptr noundef nonnull align 8 dereferenceable(16) %17) #28
  unreachable

75:                                               ; preds = %73, %61
  %76 = landingpad { ptr, i32 }
          cleanup
  %77 = extractvalue { ptr, i32 } %76, 0
  store ptr %77, ptr %12, align 8
  %78 = extractvalue { ptr, i32 } %76, 1
  store i32 %78, ptr %13, align 4
  call void @_ZN4absl12lts_2024072212log_internal15LogMessageFatalD1Ev(ptr noundef nonnull align 8 dereferenceable(16) %17) #28
  unreachable

79:                                               ; No predecessors!
  call void @llvm.lifetime.end.p0(i64 16, ptr %17) #3
  call void @llvm.lifetime.end.p0(i64 1, ptr %16) #3
  call void @llvm.lifetime.end.p0(i64 8, ptr %14) #3
  br label %155

80:                                               ; preds = %54
  %81 = load ptr, ptr %5, align 8, !tbaa !113
  %82 = getelementptr inbounds nuw %struct.grpc_slice, ptr %81, i32 0, i32 0
  %83 = load ptr, ptr %82, align 8, !tbaa !115
  %84 = icmp ne ptr %83, null
  br i1 %84, label %85, label %90

85:                                               ; preds = %80
  %86 = load ptr, ptr %5, align 8, !tbaa !113
  %87 = getelementptr inbounds nuw %struct.grpc_slice, ptr %86, i32 0, i32 1
  %88 = getelementptr inbounds nuw %"struct.grpc_slice::grpc_slice_data::grpc_slice_refcounted", ptr %87, i32 0, i32 0
  %89 = load i64, ptr %88, align 8, !tbaa !47
  br label %96

90:                                               ; preds = %80
  %91 = load ptr, ptr %5, align 8, !tbaa !113
  %92 = getelementptr inbounds nuw %struct.grpc_slice, ptr %91, i32 0, i32 1
  %93 = getelementptr inbounds nuw %"struct.grpc_slice::grpc_slice_data::grpc_slice_inlined", ptr %92, i32 0, i32 0
  %94 = load i8, ptr %93, align 8, !tbaa !47
  %95 = zext i8 %94 to i64
  br label %96

96:                                               ; preds = %90, %85
  %97 = phi i64 [ %89, %85 ], [ %95, %90 ]
  %98 = load i64, ptr %6, align 8, !tbaa !40
  %99 = icmp eq i64 %97, %98
  br i1 %99, label %100, label %101

100:                                              ; preds = %96
  br label %154

101:                                              ; preds = %96
  call void @llvm.lifetime.start.p0(i64 8, ptr %19) #3
  %102 = load ptr, ptr %4, align 8, !tbaa !50
  store ptr %102, ptr %19, align 8, !tbaa !23
  %103 = load ptr, ptr %5, align 8, !tbaa !113
  %104 = getelementptr inbounds nuw %struct.grpc_slice, ptr %103, i32 0, i32 0
  %105 = load ptr, ptr %104, align 8, !tbaa !115
  %106 = icmp ne ptr %105, null
  br i1 %106, label %107, label %112

107:                                              ; preds = %101
  %108 = load ptr, ptr %5, align 8, !tbaa !113
  %109 = getelementptr inbounds nuw %struct.grpc_slice, ptr %108, i32 0, i32 1
  %110 = getelementptr inbounds nuw %"struct.grpc_slice::grpc_slice_data::grpc_slice_refcounted", ptr %109, i32 0, i32 0
  %111 = load i64, ptr %110, align 8, !tbaa !47
  br label %118

112:                                              ; preds = %101
  %113 = load ptr, ptr %5, align 8, !tbaa !113
  %114 = getelementptr inbounds nuw %struct.grpc_slice, ptr %113, i32 0, i32 1
  %115 = getelementptr inbounds nuw %"struct.grpc_slice::grpc_slice_data::grpc_slice_inlined", ptr %114, i32 0, i32 0
  %116 = load i8, ptr %115, align 8, !tbaa !47
  %117 = zext i8 %116 to i64
  br label %118

118:                                              ; preds = %112, %107
  %119 = phi i64 [ %111, %107 ], [ %117, %112 ]
  %120 = load i64, ptr %6, align 8, !tbaa !40
  %121 = sub i64 %119, %120
  %122 = load ptr, ptr %19, align 8, !tbaa !23
  %123 = getelementptr inbounds nuw %struct.alts_tsi_handshaker_result, ptr %122, i32 0, i32 4
  store i64 %121, ptr %123, align 8, !tbaa !116
  %124 = load ptr, ptr %19, align 8, !tbaa !23
  %125 = getelementptr inbounds nuw %struct.alts_tsi_handshaker_result, ptr %124, i32 0, i32 4
  %126 = load i64, ptr %125, align 8, !tbaa !116
  %127 = call ptr @gpr_zalloc(i64 noundef %126)
  %128 = load ptr, ptr %19, align 8, !tbaa !23
  %129 = getelementptr inbounds nuw %struct.alts_tsi_handshaker_result, ptr %128, i32 0, i32 3
  store ptr %127, ptr %129, align 8, !tbaa !117
  %130 = load ptr, ptr %19, align 8, !tbaa !23
  %131 = getelementptr inbounds nuw %struct.alts_tsi_handshaker_result, ptr %130, i32 0, i32 3
  %132 = load ptr, ptr %131, align 8, !tbaa !117
  %133 = load ptr, ptr %5, align 8, !tbaa !113
  %134 = getelementptr inbounds nuw %struct.grpc_slice, ptr %133, i32 0, i32 0
  %135 = load ptr, ptr %134, align 8, !tbaa !115
  %136 = icmp ne ptr %135, null
  br i1 %136, label %137, label %142

137:                                              ; preds = %118
  %138 = load ptr, ptr %5, align 8, !tbaa !113
  %139 = getelementptr inbounds nuw %struct.grpc_slice, ptr %138, i32 0, i32 1
  %140 = getelementptr inbounds nuw %"struct.grpc_slice::grpc_slice_data::grpc_slice_refcounted", ptr %139, i32 0, i32 1
  %141 = load ptr, ptr %140, align 8, !tbaa !47
  br label %147

142:                                              ; preds = %118
  %143 = load ptr, ptr %5, align 8, !tbaa !113
  %144 = getelementptr inbounds nuw %struct.grpc_slice, ptr %143, i32 0, i32 1
  %145 = getelementptr inbounds nuw %"struct.grpc_slice::grpc_slice_data::grpc_slice_inlined", ptr %144, i32 0, i32 1
  %146 = getelementptr inbounds [23 x i8], ptr %145, i64 0, i64 0
  br label %147

147:                                              ; preds = %142, %137
  %148 = phi ptr [ %141, %137 ], [ %146, %142 ]
  %149 = load i64, ptr %6, align 8, !tbaa !40
  %150 = getelementptr inbounds nuw i8, ptr %148, i64 %149
  %151 = load ptr, ptr %19, align 8, !tbaa !23
  %152 = getelementptr inbounds nuw %struct.alts_tsi_handshaker_result, ptr %151, i32 0, i32 4
  %153 = load i64, ptr %152, align 8, !tbaa !116
  call void @llvm.memcpy.p0.p0.i64(ptr align 1 %132, ptr align 1 %150, i64 %153, i1 false)
  call void @llvm.lifetime.end.p0(i64 8, ptr %19) #3
  br label %154

154:                                              ; preds = %147, %100
  ret void

155:                                              ; preds = %79, %60
  %156 = load ptr, ptr %12, align 8
  %157 = load i32, ptr %13, align 4
  %158 = insertvalue { ptr, i32 } poison, ptr %156, 0
  %159 = insertvalue { ptr, i32 } %158, i32 %157, 1
  resume { ptr, i32 } %159
}