; Function Attrs: mustprogress uwtable
define void @_Z43alts_tsi_handshaker_result_set_unused_bytesP21tsi_handshaker_resultP10grpc_slicem(ptr noundef %0, ptr noundef readonly %1, i64 noundef %2) local_unnamed_addr #3 personality ptr @__gxx_personality_v0 {
  %4 = alloca %"class.absl::lts_20240722::log_internal::LogMessageFatal", align 8
  %5 = alloca %"class.absl::lts_20240722::log_internal::LogMessageFatal", align 8
  %.not = icmp eq ptr %1, null
  br i1 %.not, label %6, label %.critedge, !prof !27

6:                                                ; preds = %3
  call void @llvm.lifetime.start.p0(i64 16, ptr nonnull %4) #29
  call void @_ZN4absl12lts_2024072212log_internal15LogMessageFatalC1EPKciSt17basic_string_viewIcSt11char_traitsIcEE(ptr noundef nonnull align 8 dereferenceable(16) %4, ptr noundef nonnull @.str, i32 noundef 678, i64 21, ptr nonnull @.str.14) #30
  call void @_ZN4absl12lts_2024072212log_internal15LogMessageFatalD1Ev(ptr noundef nonnull align 8 dereferenceable(16) %4) #32
  unreachable

.critedge:                                        ; preds = %3
  %.not.i = icmp eq ptr %0, null
  br i1 %.not.i, label %10, label %7, !prof !27

7:                                                ; preds = %.critedge
  %8 = load ptr, ptr %1, align 8, !tbaa !77
  %.not25 = icmp eq ptr %8, null
  %9 = getelementptr inbounds nuw i8, ptr %1, i64 8
  br i1 %.not25, label %15, label %.thread

10:                                               ; preds = %.critedge
  %11 = tail call noundef nonnull ptr @_ZN4absl12lts_2024072212log_internal17MakeCheckOpStringIPKvS4_EEPNSt7__cxx1112basic_stringIcSt11char_traitsIcESaIcEEET_T0_PKc(ptr noundef null, ptr noundef null, ptr noundef nonnull @.str.15)
  call void @llvm.lifetime.start.p0(i64 16, ptr nonnull %5) #29
  %12 = load ptr, ptr %11, align 8, !tbaa !64
  %13 = getelementptr inbounds nuw i8, ptr %11, i64 8
  %14 = load i64, ptr %13, align 8, !tbaa !67
  call void @_ZN4absl12lts_2024072212log_internal15LogMessageFatalC1EPKciSt17basic_string_viewIcSt11char_traitsIcEE(ptr noundef nonnull align 8 dereferenceable(16) %5, ptr noundef nonnull @.str, i32 noundef 679, i64 %14, ptr %12) #30
  call void @_ZN4absl12lts_2024072212log_internal15LogMessageFatalD1Ev(ptr noundef nonnull align 8 dereferenceable(16) %5) #32
  unreachable

15:                                               ; preds = %7
  %16 = load i8, ptr %9, align 8, !tbaa !28
  %17 = zext i8 %16 to i64
  %18 = icmp eq i64 %2, %17
  br i1 %18, label %36, label %.thread32

.thread:                                          ; preds = %7
  %19 = load i64, ptr %9, align 8, !tbaa !28
  %20 = icmp eq i64 %19, %2
  br i1 %20, label %36, label %.thread32

.thread32:                                        ; preds = %15, %.thread
  %21 = phi i64 [ %19, %.thread ], [ %17, %15 ]
  %22 = sub i64 %21, %2
  %23 = getelementptr inbounds nuw i8, ptr %0, i64 32
  store i64 %22, ptr %23, align 8, !tbaa !78
  %24 = tail call ptr @gpr_zalloc(i64 noundef %22)
  %25 = getelementptr inbounds nuw i8, ptr %0, i64 24
  store ptr %24, ptr %25, align 8, !tbaa !79
  %26 = load ptr, ptr %1, align 8, !tbaa !77
  %.not27 = icmp eq ptr %26, null
  br i1 %.not27, label %30, label %27

27:                                               ; preds = %.thread32
  %28 = getelementptr inbounds nuw i8, ptr %1, i64 16
  %29 = load ptr, ptr %28, align 8, !tbaa !28
  br label %32

30:                                               ; preds = %.thread32
  %31 = getelementptr inbounds nuw i8, ptr %1, i64 9
  br label %32

32:                                               ; preds = %30, %27
  %33 = phi ptr [ %29, %27 ], [ %31, %30 ]
  %34 = getelementptr inbounds nuw i8, ptr %33, i64 %2
  %35 = load i64, ptr %23, align 8, !tbaa !78
  tail call void @llvm.memcpy.p0.p0.i64(ptr align 1 %24, ptr align 1 %34, i64 %35, i1 false)
  br label %36

36:                                               ; preds = %.thread, %15, %32
  ret void
}